target datalayout = "e-m:e-p270:32:32-p271:32:32-p272:64:64-i64:64-i128:128-f80:128-n8:16:32:64-S128"
target triple = "x86_64-pc-linux-gnu"

%struct.GlobalContext = type { %struct.HTable, ptr, ptr, ptr, ptr, ptr, ptr, ptr, ptr, i8, i32, i32, i32, ptr, ptr, %struct.HTable, %struct.HTable, %struct.Module_, %struct.DeclTable, %struct.DeclTable, %struct.Path_, ptr, ptr, ptr, ptr, ptr, ptr, ptr, [65536 x ptr], ptr, ptr, ptr }
%struct.HTable = type { i32, ptr }
%struct.Module_ = type { ptr, ptr, ptr, i16, i32, ptr, %struct.HTable, ptr, ptr, ptr, ptr, ptr, ptr, ptr, ptr, ptr }
%struct.DeclTable = type { i32, i32, i32, ptr }
%struct.Path_ = type { %union.SourceSpan, ptr, i32 }
%union.SourceSpan = type { i64 }
%struct.BuildTarget = type { i32, ptr, ptr, ptr, ptr, ptr, ptr, ptr, ptr, ptr, ptr, ptr, ptr, ptr, ptr, ptr, ptr, ptr, ptr, i8, i8, i8, i8, i8, i8, i8, i8, i8, i8, i8, i8, i8, i8, i8, i8, i8, i8, i8, i8, i32, i32, i32, i32, i32, i32, i32, i32, i32, i32, i32, i32, i32, i32, i32, i32, i32, i32, ptr, ptr, ptr, ptr, ptr, ptr, ptr, ptr, ptr, ptr, %struct.anon.90, %struct.anon.91, %struct.anon.92, %struct.anon.93 }
%struct.anon.90 = type { i16, i32, i32, i32 }
%struct.anon.91 = type { ptr, ptr, ptr, ptr }
%struct.anon.92 = type { ptr, ptr, i32, i8 }
%struct.anon.93 = type { ptr, ptr }
%struct.VHeader_ = type { i32, i32, [0 x i8] }
%struct.CompilationUnit_ = type { ptr, ptr, ptr, ptr, ptr, ptr, ptr, ptr, ptr, ptr, i32, ptr, i8, i8, i8, i8, ptr, ptr, ptr, ptr, ptr, ptr, ptr, ptr, ptr, ptr, ptr, ptr, %struct.HTable, i32, ptr, ptr, %struct.anon.85 }
%struct.anon.85 = type { ptr, ptr }
%struct.Decl_ = type { ptr, ptr, %union.SourceSpan, i64, %union.anon, i32, %union.anon.0, i64, ptr, ptr, ptr, %union.anon.1 }
%union.anon = type { ptr }
%union.anon.0 = type { i16 }
%union.anon.1 = type { %struct.FuncDecl }
%struct.FuncDecl = type { i32, [4 x i8], %struct.Signature_, i32, i32, %union.anon.8 }
%struct.Signature_ = type <{ %struct.CalleeAttributes, i16, i8, i32, i32, [4 x i8], ptr }>
%struct.CalleeAttributes = type { i8 }
%union.anon.8 = type { %struct.anon.9 }
%struct.anon.9 = type { i16, %union.anon.10 }
%union.anon.10 = type { ptr }
%struct.SemaContext_ = type { ptr, ptr, ptr, %struct.CallEnv, ptr, %union.SourceSpan, i32, i32, ptr, i32, ptr, i32, i32, ptr, ptr, i32, %struct.anon.86, ptr, ptr, ptr, %struct.DynamicScope_, ptr }
%struct.CallEnv = type { i16, ptr, %union.anon.60 }
%union.anon.60 = type { ptr }
%struct.anon.86 = type { i32, ptr, ptr, ptr, ptr, ptr, ptr, ptr, ptr, ptr, i8, ptr }
%struct.DynamicScope_ = type { i32, i8, i32, i32, i32, i32, i32, ptr, i32 }
%struct.Attr = type { ptr, ptr, %union.SourceSpan, i16, ptr }
%struct.Expr_ = type { ptr, %union.SourceSpan, i16, %union.anon.29 }
%union.anon.29 = type { %struct.ExprAnySwitch }
%struct.ExprAnySwitch = type { i8, %union.anon.31 }
%union.anon.31 = type { %struct.anon.32 }
%struct.anon.32 = type { ptr, %union.SourceSpan, ptr }
%struct.ExprConst = type { i16, %union.anon.38 }
%union.anon.38 = type { %struct.Int }
%struct.Int = type { %struct.Int128_, i32 }
%struct.Int128_ = type { i64, i64 }
%struct.IncludeDecl = type { ptr }
%struct.File = type { i16, ptr, i64, ptr, ptr, ptr }

@global_context = external global %struct.GlobalContext, align 8
@active_target = external global %struct.BuildTarget, align 8
@.str.21 = private unnamed_addr constant [78 x i8] c"This $include would cause the maximum number of includes (%d) to be exceeded.\00", align 1
@.str.22 = private unnamed_addr constant [103 x i8] c"'$include' not permitted, trust level must be set to '--trust=include' or '--trust=full' to permit it.\00", align 1
@.str.23 = private unnamed_addr constant [34 x i8] c"Invalid attribute for '$include'.\00", align 1
@.str.24 = private unnamed_addr constant [9 x i8] c"$include\00", align 1
@.str.25 = private unnamed_addr constant [36 x i8] c"A compile time string was expected.\00", align 1
@.str.26 = private unnamed_addr constant [27 x i8] c"Failed to load file %s: %s\00", align 1

; Function Attrs: nounwind uwtable
define internal ptr @sema_load_include(ptr noundef %0, ptr noundef %1) #0 {
  %3 = alloca ptr, align 8
  %4 = alloca ptr, align 8
  %5 = alloca %union.SourceSpan, align 8
  %6 = alloca ptr, align 8
  %7 = alloca ptr, align 8
  %8 = alloca ptr, align 8
  %9 = alloca ptr, align 8
  %10 = alloca ptr, align 8
  %11 = alloca i8, align 1
  %12 = alloca ptr, align 8
  %13 = alloca ptr, align 8
  %14 = alloca ptr, align 8
  %15 = alloca ptr, align 8
  %16 = alloca i32, align 4
  %17 = alloca ptr, align 8
  %18 = alloca ptr, align 8
  %19 = alloca ptr, align 8
  %20 = alloca ptr, align 8
  %21 = alloca ptr, align 8
  %22 = alloca %struct.SemaContext_, align 8
  %23 = alloca ptr, align 8
  %24 = alloca i32, align 4
  %25 = alloca i32, align 4
  %26 = alloca ptr, align 8
  %27 = alloca i8, align 1
  %28 = alloca ptr, align 8
  store ptr %0, ptr %20, align 8
  store ptr %1, ptr %21, align 8
  %29 = load i32, ptr getelementptr inbounds (%struct.BuildTarget, ptr @active_target, i32 0, i32 40), align 8
  %30 = icmp ult i32 %29, 1
  br i1 %30, label %31, label %36

31:                                               ; preds = %2
  %32 = load ptr, ptr %21, align 8
  %33 = getelementptr inbounds %struct.Decl_, ptr %32, i32 0, i32 2
  %34 = getelementptr inbounds %union.SourceSpan, ptr %33, i32 0, i32 0
  %35 = load i64, ptr %34, align 8
  call void (i64, ptr, ...) @sema_error_at(i64 %35, ptr noundef @.str.22)
  store ptr null, ptr %19, align 8
  br label %172

36:                                               ; preds = %2
  %37 = load ptr, ptr %20, align 8
  call void @sema_context_init(ptr noundef %22, ptr noundef %37)
  %38 = load ptr, ptr %21, align 8
  %39 = getelementptr inbounds %struct.Decl_, ptr %38, i32 0, i32 9
  %40 = load ptr, ptr %39, align 8
  store ptr %40, ptr %23, align 8
  %41 = load ptr, ptr %23, align 8
  store ptr %41, ptr %17, align 8
  %42 = load ptr, ptr %17, align 8
  %43 = icmp ne ptr %42, null
  br i1 %43, label %45, label %44

44:                                               ; preds = %36
  store i32 0, ptr %16, align 4
  br label %50

45:                                               ; preds = %36
  %46 = load ptr, ptr %17, align 8
  store ptr %46, ptr %18, align 8
  %47 = load ptr, ptr %18, align 8
  %48 = getelementptr inbounds %struct.VHeader_, ptr %47, i64 -1
  %49 = load i32, ptr %48, align 4
  store i32 %49, ptr %16, align 4
  br label %50

50:                                               ; preds = %45, %44
  %51 = load i32, ptr %16, align 4
  store i32 %51, ptr %24, align 4
  store i32 0, ptr %25, align 4
  br label %52

52:                                               ; preds = %74, %50
  %53 = load i32, ptr %25, align 4
  %54 = load i32, ptr %24, align 4
  %55 = icmp ult i32 %53, %54
  br i1 %55, label %56, label %77

56:                                               ; preds = %52
  %57 = load ptr, ptr %23, align 8
  %58 = load i32, ptr %25, align 4
  %59 = zext i32 %58 to i64
  %60 = getelementptr inbounds ptr, ptr %57, i64 %59
  %61 = load ptr, ptr %60, align 8
  store ptr %61, ptr %26, align 8
  %62 = load ptr, ptr %26, align 8
  %63 = getelementptr inbounds %struct.Attr, ptr %62, i32 0, i32 3
  %64 = load i16, ptr %63, align 8
  %65 = and i16 %64, 255
  %66 = zext i16 %65 to i32
  %67 = icmp ne i32 %66, 11
  br i1 %67, label %68, label %73

68:                                               ; preds = %56
  %69 = load ptr, ptr %26, align 8
  %70 = getelementptr inbounds %struct.Attr, ptr %69, i32 0, i32 2
  %71 = getelementptr inbounds %union.SourceSpan, ptr %70, i32 0, i32 0
  %72 = load i64, ptr %71, align 8
  call void (i64, ptr, ...) @sema_error_at(i64 %72, ptr noundef @.str.23)
  store ptr null, ptr %19, align 8
  br label %172

73:                                               ; preds = %56
  br label %74

74:                                               ; preds = %73
  %75 = load i32, ptr %25, align 4
  %76 = add i32 %75, 1
  store i32 %76, ptr %25, align 4
  br label %52, !llvm.loop !54

77:                                               ; preds = %52
  br label %78

78:                                               ; preds = %77
  br label %79

79:                                               ; preds = %78
  %80 = load ptr, ptr %21, align 8
  %81 = getelementptr inbounds %struct.Decl_, ptr %80, i32 0, i32 11
  %82 = getelementptr inbounds %struct.IncludeDecl, ptr %81, i32 0, i32 0
  %83 = load ptr, ptr %82, align 8
  %84 = call zeroext i1 @sema_analyse_ct_expr(ptr noundef %22, ptr noundef %83)
  %85 = zext i1 %84 to i8
  store i8 %85, ptr %27, align 1
  call void @sema_context_destroy(ptr noundef %22)
  %86 = load i8, ptr %27, align 1
  %87 = trunc i8 %86 to i1
  br i1 %87, label %88, label %89

88:                                               ; preds = %79
  store ptr null, ptr %19, align 8
  br label %172

89:                                               ; preds = %79
  %90 = load ptr, ptr %20, align 8
  %91 = load ptr, ptr %21, align 8
  %92 = getelementptr inbounds %struct.Decl_, ptr %91, i32 0, i32 2
  %93 = load ptr, ptr %21, align 8
  %94 = getelementptr inbounds %struct.Decl_, ptr %93, i32 0, i32 11
  %95 = getelementptr inbounds %struct.IncludeDecl, ptr %94, i32 0, i32 0
  %96 = load ptr, ptr %95, align 8
  %97 = getelementptr inbounds %union.SourceSpan, ptr %92, i32 0, i32 0
  %98 = load i64, ptr %97, align 8
  store i64 %98, ptr %5, align 8
  store ptr %90, ptr %6, align 8
  store ptr %96, ptr %7, align 8
  store ptr @.str.24, ptr %8, align 8
  store ptr null, ptr %9, align 8
  %99 = load ptr, ptr %7, align 8
  store ptr %99, ptr %3, align 8
  %100 = load ptr, ptr %3, align 8
  %101 = getelementptr inbounds %struct.Expr_, ptr %100, i32 0, i32 2
  %102 = load i16, ptr %101, align 8
  %103 = and i16 %102, 255
  %104 = zext i16 %103 to i32
  %105 = icmp eq i32 %104, 14
  br i1 %105, label %106, label %113

106:                                              ; preds = %89
  %107 = load ptr, ptr %3, align 8
  %108 = getelementptr inbounds %struct.Expr_, ptr %107, i32 0, i32 3
  %109 = load i16, ptr %108, align 8
  %110 = and i16 %109, 255
  %111 = zext i16 %110 to i32
  %112 = icmp eq i32 %111, 6
  br label %113

113:                                              ; preds = %106, %89
  %114 = phi i1 [ false, %89 ], [ %112, %106 ]
  br i1 %114, label %119, label %115

115:                                              ; preds = %113
  %116 = load ptr, ptr %7, align 8
  %117 = getelementptr inbounds %struct.Expr_, ptr %116, i32 0, i32 1
  %118 = load i64, ptr %117, align 8
  call void (i64, ptr, ...) @sema_error_at(i64 %118, ptr noundef @.str.25) #8
  store ptr null, ptr %4, align 8
  br label %154

119:                                              ; preds = %113
  %120 = load ptr, ptr %7, align 8
  %121 = getelementptr inbounds %struct.Expr_, ptr %120, i32 0, i32 3
  %122 = getelementptr inbounds %struct.ExprConst, ptr %121, i32 0, i32 1
  %123 = load ptr, ptr %122, align 8
  store ptr %123, ptr %10, align 8
  %124 = load ptr, ptr %6, align 8
  %125 = getelementptr inbounds %struct.CompilationUnit_, ptr %124, i32 0, i32 1
  %126 = load ptr, ptr %125, align 8
  %127 = getelementptr inbounds %struct.File, ptr %126, i32 0, i32 5
  %128 = load ptr, ptr %127, align 8
  %129 = call zeroext i1 @file_namesplit(ptr noundef %128, ptr noundef %14, ptr noundef %13) #8
  br i1 %129, label %130, label %134

130:                                              ; preds = %119
  %131 = load ptr, ptr %13, align 8
  %132 = load ptr, ptr %10, align 8
  %133 = call ptr @file_append_path(ptr noundef %131, ptr noundef %132) #8
  store ptr %133, ptr %10, align 8
  br label %134

134:                                              ; preds = %130, %119
  %135 = load ptr, ptr %10, align 8
  %136 = call ptr @source_file_load(ptr noundef %135, ptr noundef %11, ptr noundef %12) #8
  store ptr %136, ptr %15, align 8
  %137 = load ptr, ptr %15, align 8
  %138 = icmp ne ptr %137, null
  br i1 %138, label %148, label %139

139:                                              ; preds = %134
  %140 = load ptr, ptr %9, align 8
  %141 = icmp ne ptr %140, null
  br i1 %141, label %142, label %144

142:                                              ; preds = %139
  %143 = load ptr, ptr %9, align 8
  store ptr %143, ptr %4, align 8
  br label %154

144:                                              ; preds = %139
  %145 = load ptr, ptr %10, align 8
  %146 = load ptr, ptr %12, align 8
  %147 = load i64, ptr %5, align 8
  call void (i64, ptr, ...) @sema_error_at(i64 %147, ptr noundef @.str.26, ptr noundef %145, ptr noundef %146) #8
  store ptr null, ptr %4, align 8
  br label %154

148:                                              ; preds = %134
  %149 = load i32, ptr getelementptr inbounds (%struct.GlobalContext, ptr @global_context, i32 0, i32 10), align 4
  %150 = icmp ne i32 %149, 0
  br i1 %150, label %151, label %152

151:                                              ; preds = %148
  store ptr null, ptr %4, align 8
  br label %154

152:                                              ; preds = %148
  %153 = load ptr, ptr %15, align 8
  store ptr %153, ptr %4, align 8
  br label %154

154:                                              ; preds = %152, %151, %144, %142, %115
  %155 = load ptr, ptr %4, align 8
  store ptr %155, ptr %28, align 8
  %156 = load ptr, ptr %28, align 8
  %157 = icmp ne ptr %156, null
  br i1 %157, label %159, label %158

158:                                              ; preds = %154
  store ptr null, ptr %19, align 8
  br label %172

159:                                              ; preds = %154
  %160 = load i32, ptr getelementptr inbounds (%struct.GlobalContext, ptr @global_context, i32 0, i32 12), align 4
  %161 = add i32 %160, 1
  store i32 %161, ptr getelementptr inbounds (%struct.GlobalContext, ptr @global_context, i32 0, i32 12), align 4
  %162 = icmp ugt i32 %160, 2048
  br i1 %162, label %163, label %168

163:                                              ; preds = %159
  %164 = load ptr, ptr %21, align 8
  %165 = getelementptr inbounds %struct.Decl_, ptr %164, i32 0, i32 2
  %166 = getelementptr inbounds %union.SourceSpan, ptr %165, i32 0, i32 0
  %167 = load i64, ptr %166, align 8
  call void (i64, ptr, ...) @sema_error_at(i64 %167, ptr noundef @.str.21, i32 noundef 2048)
  store ptr null, ptr %19, align 8
  br label %172

168:                                              ; preds = %159
  %169 = load ptr, ptr %28, align 8
  %170 = load ptr, ptr %20, align 8
  %171 = call ptr @parse_include_file(ptr noundef %169, ptr noundef %170)
  store ptr %171, ptr %19, align 8
  br label %172

172:                                              ; preds = %168, %163, %158, %88, %68, %31
  %173 = load ptr, ptr %19, align 8
  ret ptr %173
}