; Function Attrs: nounwind uwtable
define internal fastcc ptr @sema_load_include(ptr noundef %0, ptr nocapture noundef readonly %1) unnamed_addr #1 {
  %3 = alloca i8, align 1
  %4 = alloca ptr, align 8
  %5 = alloca ptr, align 8
  %6 = alloca ptr, align 8
  %7 = alloca %struct.SemaContext_, align 8
  %8 = load i32, ptr getelementptr inbounds (%struct.BuildTarget, ptr @active_target, i64 0, i32 40), align 8
  %9 = icmp eq i32 %8, 0
  br i1 %9, label %10, label %13

10:                                               ; preds = %2
  %11 = getelementptr inbounds i8, ptr %1, i64 16
  %12 = load i64, ptr %11, align 8
  tail call void (i64, ptr, ...) @sema_error_at(i64 %12, ptr noundef nonnull @.str.22) #11
  br label %.thread

13:                                               ; preds = %2
  call void @sema_context_init(ptr noundef nonnull %7, ptr noundef %0) #11
  %14 = getelementptr inbounds i8, ptr %1, i64 64
  %15 = load ptr, ptr %14, align 8
  %.not = icmp eq ptr %15, null
  br i1 %.not, label %._crit_edge, label %16

16:                                               ; preds = %13
  %17 = getelementptr inbounds i8, ptr %15, i64 -8
  %18 = load i32, ptr %17, align 4
  %.not51 = icmp eq i32 %18, 0
  br i1 %.not51, label %._crit_edge, label %.lr.ph.preheader

.lr.ph.preheader:                                 ; preds = %16
  %wide.trip.count = zext i32 %18 to i64
  br label %.lr.ph

19:                                               ; preds = %.lr.ph
  %indvars.iv.next = add nuw nsw i64 %indvars.iv, 1
  %exitcond.not = icmp eq i64 %indvars.iv.next, %wide.trip.count
  br i1 %exitcond.not, label %._crit_edge, label %.lr.ph, !llvm.loop !55

.lr.ph:                                           ; preds = %.lr.ph.preheader, %19
  %indvars.iv = phi i64 [ 0, %.lr.ph.preheader ], [ %indvars.iv.next, %19 ]
  %20 = getelementptr inbounds ptr, ptr %15, i64 %indvars.iv
  %21 = load ptr, ptr %20, align 8
  %22 = getelementptr inbounds i8, ptr %21, i64 24
  %23 = load i16, ptr %22, align 8
  %24 = and i16 %23, 255
  %.not47 = icmp eq i16 %24, 11
  br i1 %.not47, label %19, label %25

25:                                               ; preds = %.lr.ph
  %26 = getelementptr inbounds i8, ptr %21, i64 16
  %27 = load i64, ptr %26, align 8
  call void (i64, ptr, ...) @sema_error_at(i64 %27, ptr noundef nonnull @.str.23) #11
  br label %.thread

._crit_edge:                                      ; preds = %19, %13, %16
  %28 = getelementptr inbounds i8, ptr %1, i64 80
  %29 = load ptr, ptr %28, align 8
  %30 = call zeroext i1 @sema_analyse_ct_expr(ptr noundef nonnull %7, ptr noundef %29) #11
  call void @sema_context_destroy(ptr noundef nonnull %7) #11
  br i1 %30, label %.thread, label %31

31:                                               ; preds = %._crit_edge
  %32 = getelementptr inbounds i8, ptr %1, i64 16
  %33 = load ptr, ptr %28, align 8
  %34 = load i64, ptr %32, align 8
  %35 = getelementptr inbounds i8, ptr %33, i64 16
  %36 = load i16, ptr %35, align 8
  %37 = and i16 %36, 255
  %38 = icmp eq i16 %37, 14
  br i1 %38, label %39, label %.critedge

39:                                               ; preds = %31
  %40 = getelementptr inbounds i8, ptr %33, i64 24
  %41 = load i16, ptr %40, align 8
  %42 = and i16 %41, 255
  %43 = icmp eq i16 %42, 6
  br i1 %43, label %46, label %.critedge

.critedge:                                        ; preds = %31, %39
  %44 = getelementptr inbounds i8, ptr %33, i64 8
  %45 = load i64, ptr %44, align 8
  call void (i64, ptr, ...) @sema_error_at(i64 %45, ptr noundef nonnull @.str.25) #11
  br label %.thread

46:                                               ; preds = %39
  %47 = getelementptr inbounds i8, ptr %33, i64 32
  %48 = load ptr, ptr %47, align 8
  %49 = getelementptr inbounds i8, ptr %0, i64 8
  %50 = load ptr, ptr %49, align 8
  %51 = getelementptr inbounds i8, ptr %50, i64 40
  %52 = load ptr, ptr %51, align 8
  %53 = call zeroext i1 @file_namesplit(ptr noundef %52, ptr noundef nonnull %6, ptr noundef nonnull %5) #11
  br i1 %53, label %54, label %57

54:                                               ; preds = %46
  %55 = load ptr, ptr %5, align 8
  %56 = call ptr @file_append_path(ptr noundef %55, ptr noundef %48) #11
  br label %57

57:                                               ; preds = %54, %46
  %.038 = phi ptr [ %56, %54 ], [ %48, %46 ]
  %58 = call ptr @source_file_load(ptr noundef %.038, ptr noundef nonnull %3, ptr noundef nonnull %4) #11
  %.not44 = icmp eq ptr %58, null
  br i1 %.not44, label %59, label %61

59:                                               ; preds = %57
  %60 = load ptr, ptr %4, align 8
  call void (i64, ptr, ...) @sema_error_at(i64 %34, ptr noundef nonnull @.str.26, ptr noundef %.038, ptr noundef %60) #11
  br label %.thread

61:                                               ; preds = %57
  %62 = load i32, ptr getelementptr inbounds (%struct.GlobalContext, ptr @global_context, i64 0, i32 10), align 4
  %.not45 = icmp eq i32 %62, 0
  br i1 %.not45, label %63, label %.thread

63:                                               ; preds = %61
  %64 = load i32, ptr getelementptr inbounds (%struct.GlobalContext, ptr @global_context, i64 0, i32 12), align 4
  %65 = add i32 %64, 1
  store i32 %65, ptr getelementptr inbounds (%struct.GlobalContext, ptr @global_context, i64 0, i32 12), align 4
  %66 = icmp ugt i32 %64, 2048
  br i1 %66, label %67, label %69

67:                                               ; preds = %63
  %68 = load i64, ptr %32, align 8
  call void (i64, ptr, ...) @sema_error_at(i64 %68, ptr noundef nonnull @.str.21, i32 noundef 2048) #11
  br label %.thread

69:                                               ; preds = %63
  %70 = call ptr @parse_include_file(ptr noundef nonnull %58, ptr noundef nonnull %0) #11
  br label %.thread

.thread:                                          ; preds = %61, %.critedge, %59, %._crit_edge, %69, %67, %25, %10
  %.041 = phi ptr [ null, %10 ], [ null, %25 ], [ null, %67 ], [ %70, %69 ], [ null, %._crit_edge ], [ null, %59 ], [ null, %.critedge ], [ null, %61 ]
  ret ptr %.041
}